target datalayout = "e-m:e-p270:32:32-p271:32:32-p272:64:64-i64:64-i128:128-f80:128-n8:16:32:64-S128"
target triple = "x86_64-pc-linux-gnu"

%struct.XLogReaderState = type { %struct.XLogReaderRoutine, i64, ptr, i64, i64, i64, i64, i64, i64, i64, i64, ptr, ptr, i64, i8, ptr, ptr, ptr, ptr, ptr, i32, %struct.WALSegmentContext, %struct.WALOpenSegment, i32, i64, i32, i64, i32, i64, i32, ptr, i32, ptr, i8, i8 }
%struct.XLogReaderRoutine = type { ptr, ptr, ptr }
%struct.WALSegmentContext = type { [1024 x i8], i32 }
%struct.WALOpenSegment = type { i32, i64, i32 }
%struct.WALReadError = type { i32, i32, i32, i32, %struct.WALOpenSegment }
%struct.ReadLocalXLogPageNoWaitPrivate = type { i8 }

@InterruptPending = external global i32, align 4

; Function Attrs: nounwind uwtable
define internal i32 @read_local_xlog_page_guts(ptr noundef %0, i64 noundef %1, i32 noundef %2, i64 noundef %3, ptr noundef %4, i1 noundef zeroext %5) #0 {
  %7 = alloca i32, align 4
  %8 = alloca ptr, align 8
  %9 = alloca i64, align 8
  %10 = alloca i32, align 4
  %11 = alloca i64, align 8
  %12 = alloca ptr, align 8
  %13 = alloca i8, align 1
  %14 = alloca i64, align 8
  %15 = alloca i64, align 8
  %16 = alloca i32, align 4
  %17 = alloca i32, align 4
  %18 = alloca %struct.WALReadError, align 8
  %19 = alloca i32, align 4
  %20 = alloca ptr, align 8
  %21 = alloca i32, align 4
  store ptr %0, ptr %8, align 8
  store i64 %1, ptr %9, align 8
  store i32 %2, ptr %10, align 4
  store i64 %3, ptr %11, align 8
  store ptr %4, ptr %12, align 8
  %22 = zext i1 %5 to i8
  store i8 %22, ptr %13, align 1
  call void @llvm.lifetime.start.p0(i64 8, ptr %14) #10
  call void @llvm.lifetime.start.p0(i64 8, ptr %15) #10
  call void @llvm.lifetime.start.p0(i64 4, ptr %16) #10
  call void @llvm.lifetime.start.p0(i64 4, ptr %17) #10
  call void @llvm.lifetime.start.p0(i64 40, ptr %18) #10
  call void @llvm.lifetime.start.p0(i64 4, ptr %19) #10
  %23 = load i64, ptr %9, align 8
  %24 = load i32, ptr %10, align 4
  %25 = sext i32 %24 to i64
  %26 = add i64 %23, %25
  store i64 %26, ptr %15, align 8
  br label %27

27:                                               ; preds = %78, %6
  br label %28

28:                                               ; preds = %27
  %29 = call zeroext i1 @RecoveryInProgress()
  br i1 %29, label %32, label %30

30:                                               ; preds = %28
  %31 = call i64 @GetFlushRecPtr(ptr noundef %19)
  store i64 %31, ptr %14, align 8
  br label %34

32:                                               ; preds = %28
  %33 = call i64 @GetXLogReplayRecPtr(ptr noundef %19)
  store i64 %33, ptr %14, align 8
  br label %34

34:                                               ; preds = %32, %30
  %35 = load i32, ptr %19, align 4
  store i32 %35, ptr %16, align 4
  %36 = load ptr, ptr %8, align 8
  %37 = load i64, ptr %9, align 8
  %38 = load i32, ptr %10, align 4
  %39 = load i32, ptr %16, align 4
  call void @XLogReadDetermineTimeline(ptr noundef %36, i64 noundef %37, i32 noundef %38, i32 noundef %39)
  %40 = load ptr, ptr %8, align 8
  %41 = getelementptr inbounds nuw %struct.XLogReaderState, ptr %40, i32 0, i32 27
  %42 = load i32, ptr %41, align 8
  %43 = load i32, ptr %19, align 4
  %44 = icmp eq i32 %42, %43
  br i1 %44, label %45, label %71

45:                                               ; preds = %34
  %46 = load i64, ptr %15, align 8
  %47 = load i64, ptr %14, align 8
  %48 = icmp ule i64 %46, %47
  br i1 %48, label %49, label %50

49:                                               ; preds = %45
  br label %79

50:                                               ; preds = %45
  %51 = load i8, ptr %13, align 1, !range !4, !noundef !5
  %52 = trunc i8 %51 to i1
  br i1 %52, label %59, label %53

53:                                               ; preds = %50
  call void @llvm.lifetime.start.p0(i64 8, ptr %20) #10
  %54 = load ptr, ptr %8, align 8
  %55 = getelementptr inbounds nuw %struct.XLogReaderState, ptr %54, i32 0, i32 2
  %56 = load ptr, ptr %55, align 8
  store ptr %56, ptr %20, align 8
  %57 = load ptr, ptr %20, align 8
  %58 = getelementptr inbounds nuw %struct.ReadLocalXLogPageNoWaitPrivate, ptr %57, i32 0, i32 0
  store i8 1, ptr %58, align 1
  call void @llvm.lifetime.end.p0(i64 8, ptr %20) #10
  br label %79

59:                                               ; preds = %50
  br label %60

60:                                               ; preds = %59
  %61 = load volatile i32, ptr @InterruptPending, align 4
  %62 = icmp ne i32 %61, 0
  %63 = zext i1 %62 to i32
  %64 = sext i32 %63 to i64
  %65 = call i64 @llvm.expect.i64(i64 %64, i64 0)
  %66 = icmp ne i64 %65, 0
  br i1 %66, label %67, label %68

67:                                               ; preds = %60
  call void @ProcessInterrupts()
  br label %68

68:                                               ; preds = %67, %60
  br label %69

69:                                               ; preds = %68
  br label %70

70:                                               ; preds = %69
  call void @pg_usleep(i64 noundef 1000)
  br label %78

71:                                               ; preds = %34
  %72 = load ptr, ptr %8, align 8
  %73 = getelementptr inbounds nuw %struct.XLogReaderState, ptr %72, i32 0, i32 28
  %74 = load i64, ptr %73, align 8
  store i64 %74, ptr %14, align 8
  %75 = load ptr, ptr %8, align 8
  %76 = getelementptr inbounds nuw %struct.XLogReaderState, ptr %75, i32 0, i32 27
  %77 = load i32, ptr %76, align 8
  store i32 %77, ptr %16, align 4
  br label %79

78:                                               ; preds = %70
  br label %27

79:                                               ; preds = %71, %53, %49
  %80 = load i64, ptr %9, align 8
  %81 = add i64 %80, 8192
  %82 = load i64, ptr %14, align 8
  %83 = icmp ule i64 %81, %82
  br i1 %83, label %84, label %85

84:                                               ; preds = %79
  store i32 8192, ptr %17, align 4
  br label %99

85:                                               ; preds = %79
  %86 = load i64, ptr %9, align 8
  %87 = load i32, ptr %10, align 4
  %88 = sext i32 %87 to i64
  %89 = add i64 %86, %88
  %90 = load i64, ptr %14, align 8
  %91 = icmp ugt i64 %89, %90
  br i1 %91, label %92, label %93

92:                                               ; preds = %85
  store i32 -1, ptr %7, align 4
  store i32 1, ptr %21, align 4
  br label %110

93:                                               ; preds = %85
  %94 = load i64, ptr %14, align 8
  %95 = load i64, ptr %9, align 8
  %96 = sub i64 %94, %95
  %97 = trunc i64 %96 to i32
  store i32 %97, ptr %17, align 4
  br label %98

98:                                               ; preds = %93
  br label %99

99:                                               ; preds = %98, %84
  %100 = load ptr, ptr %8, align 8
  %101 = load ptr, ptr %12, align 8
  %102 = load i64, ptr %9, align 8
  %103 = load i32, ptr %17, align 4
  %104 = sext i32 %103 to i64
  %105 = load i32, ptr %16, align 4
  %106 = call zeroext i1 @WALRead(ptr noundef %100, ptr noundef %101, i64 noundef %102, i64 noundef %104, i32 noundef %105, ptr noundef %18)
  br i1 %106, label %108, label %107

107:                                              ; preds = %99
  call void @WALReadRaiseError(ptr noundef %18)
  br label %108

108:                                              ; preds = %107, %99
  %109 = load i32, ptr %17, align 4
  store i32 %109, ptr %7, align 4
  store i32 1, ptr %21, align 4
  br label %110

110:                                              ; preds = %108, %92
  call void @llvm.lifetime.end.p0(i64 4, ptr %19) #10
  call void @llvm.lifetime.end.p0(i64 40, ptr %18) #10
  call void @llvm.lifetime.end.p0(i64 4, ptr %17) #10
  call void @llvm.lifetime.end.p0(i64 4, ptr %16) #10
  call void @llvm.lifetime.end.p0(i64 8, ptr %15) #10
  call void @llvm.lifetime.end.p0(i64 8, ptr %14) #10
  %111 = load i32, ptr %7, align 4
  ret i32 %111
}