; Function Attrs: nounwind uwtable
define internal fastcc i32 @read_local_xlog_page_guts(ptr noundef %0, i64 noundef %1, i32 noundef %2, ptr noundef %3, i1 noundef zeroext %4) unnamed_addr #0 {
  %6 = alloca %struct.WALReadError, align 8
  %7 = alloca i32, align 4
  call void @llvm.lifetime.start.p0(i64 40, ptr nonnull %6) #8
  call void @llvm.lifetime.start.p0(i64 4, ptr nonnull %7) #8
  %8 = sext i32 %2 to i64
  %9 = add i64 %1, %8
  %10 = getelementptr inbounds nuw i8, ptr %0, i64 1264
  br i1 %4, label %.split.us, label %.split

.split.us:                                        ; preds = %5, %25
  %11 = call zeroext i1 @RecoveryInProgress() #8
  br i1 %11, label %14, label %12

12:                                               ; preds = %.split.us
  %13 = call i64 @GetFlushRecPtr(ptr noundef nonnull %7) #8
  br label %16

14:                                               ; preds = %.split.us
  %15 = call i64 @GetXLogReplayRecPtr(ptr noundef nonnull %7) #8
  br label %16

16:                                               ; preds = %14, %12
  %.029.us = phi i64 [ %15, %14 ], [ %13, %12 ]
  %17 = load i32, ptr %7, align 4
  call void @XLogReadDetermineTimeline(ptr noundef %0, i64 noundef %1, i32 noundef %2, i32 noundef %17)
  %18 = load i32, ptr %10, align 8
  %19 = load i32, ptr %7, align 4
  %20 = icmp eq i32 %18, %19
  br i1 %20, label %21, label %.split41.us

21:                                               ; preds = %16
  %.not.us = icmp ugt i64 %9, %.029.us
  br i1 %.not.us, label %22, label %.loopexit

22:                                               ; preds = %21
  %23 = load volatile i32, ptr @InterruptPending, align 4
  %.not31.us = icmp eq i32 %23, 0
  br i1 %.not31.us, label %25, label %24, !prof !10

24:                                               ; preds = %22
  call void @ProcessInterrupts() #8
  br label %25

25:                                               ; preds = %24, %22
  call void @pg_usleep(i64 noundef 1000) #8
  br label %.split.us

.split:                                           ; preds = %5
  %26 = tail call zeroext i1 @RecoveryInProgress() #8
  br i1 %26, label %29, label %27

27:                                               ; preds = %.split
  %28 = call i64 @GetFlushRecPtr(ptr noundef nonnull %7) #8
  br label %31

29:                                               ; preds = %.split
  %30 = call i64 @GetXLogReplayRecPtr(ptr noundef nonnull %7) #8
  br label %31

31:                                               ; preds = %29, %27
  %.029 = phi i64 [ %30, %29 ], [ %28, %27 ]
  %32 = load i32, ptr %7, align 4
  call void @XLogReadDetermineTimeline(ptr noundef %0, i64 noundef %1, i32 noundef %2, i32 noundef %32)
  %33 = load i32, ptr %10, align 8
  %34 = load i32, ptr %7, align 4
  %35 = icmp eq i32 %33, %34
  br i1 %35, label %36, label %.split41.us

36:                                               ; preds = %31
  %.not = icmp ugt i64 %9, %.029
  br i1 %.not, label %37, label %.loopexit

37:                                               ; preds = %36
  %38 = getelementptr inbounds nuw i8, ptr %0, i64 32
  %39 = load ptr, ptr %38, align 8
  store i8 1, ptr %39, align 1
  br label %.loopexit

.split41.us:                                      ; preds = %16, %31
  %.us-phi = phi i32 [ %33, %31 ], [ %18, %16 ]
  %40 = getelementptr inbounds nuw i8, ptr %0, i64 1272
  %41 = load i64, ptr %40, align 8
  br label %.loopexit

.loopexit:                                        ; preds = %21, %36, %.split41.us, %37
  %.1 = phi i64 [ %.029, %37 ], [ %41, %.split41.us ], [ %.029, %36 ], [ %.029.us, %21 ]
  %.028 = phi i32 [ %32, %37 ], [ %.us-phi, %.split41.us ], [ %32, %36 ], [ %17, %21 ]
  %42 = add i64 %1, 8192
  %.not32 = icmp ugt i64 %42, %.1
  br i1 %.not32, label %43, label %48

43:                                               ; preds = %.loopexit
  %44 = icmp ugt i64 %9, %.1
  br i1 %44, label %52, label %45

45:                                               ; preds = %43
  %46 = sub i64 %.1, %1
  %47 = trunc i64 %46 to i32
  br label %48

48:                                               ; preds = %.loopexit, %45
  %.027 = phi i32 [ %47, %45 ], [ 8192, %.loopexit ]
  %49 = sext i32 %.027 to i64
  %50 = call zeroext i1 @WALRead(ptr noundef nonnull %0, ptr noundef %3, i64 noundef %1, i64 noundef %49, i32 noundef %.028, ptr noundef nonnull %6) #8
  br i1 %50, label %52, label %51

51:                                               ; preds = %48
  call void @WALReadRaiseError(ptr noundef nonnull %6)
  br label %52

52:                                               ; preds = %48, %51, %43
  %.0 = phi i32 [ -1, %43 ], [ %.027, %51 ], [ %.027, %48 ]
  call void @llvm.lifetime.end.p0(i64 4, ptr nonnull %7) #8
  call void @llvm.lifetime.end.p0(i64 40, ptr nonnull %6) #8
  ret i32 %.0
}